target datalayout = "e-m:e-p270:32:32-p271:32:32-p272:64:64-i64:64-i128:128-f80:128-n8:16:32:64-S128"
target triple = "x86_64-pc-linux-gnu"

%struct.SDL_WaylandDataDevice = type { ptr, ptr, ptr, i32, ptr, ptr, ptr, i8, i8, ptr, i32, ptr }
%struct.SDL_WaylandDataOffer = type { ptr, %struct.wl_list, ptr, ptr, i32 }
%struct.wl_list = type { ptr, ptr }
%struct.SDL_WaylandSeat = type { ptr, ptr, ptr, ptr, ptr, %struct.wl_list, i32, i32, %struct.anon, %struct.anon.1, %struct.anon.4, %struct.anon.5, %struct.anon.6 }
%struct.anon = type { ptr, ptr, ptr, ptr, ptr, %struct.SDL_WaylandKeyboardRepeat, i64, i16, i16, i32, i8, %struct.anon.0 }
%struct.SDL_WaylandKeyboardRepeat = type { i32, i32, i32, i8, i8, i32, i64, i64, i64, i32, [8 x i8] }
%struct.anon.0 = type { ptr, ptr, ptr, ptr, i32, i32, i32, i32, i32, i32, i32, i32, i32, i32, i32 }
%struct.anon.1 = type { ptr, ptr, ptr, ptr, ptr, ptr, ptr, ptr, i64, i32, i32, %struct.SDL_Point, i32, %struct.anon.2, %struct.anon.3 }
%struct.SDL_Point = type { i32, i32 }
%struct.anon.2 = type { i32, float, i32, float, i64, i32 }
%struct.anon.3 = type { ptr, ptr, ptr, i64, i64, i32 }
%struct.anon.4 = type { ptr, ptr, i64, %struct.wl_list }
%struct.anon.5 = type { ptr, %struct.SDL_Rect, i8, i8 }
%struct.SDL_Rect = type { i32, i32, i32, i32 }
%struct.anon.6 = type { ptr, %struct.wl_list }
%struct.SDL_VideoData = type { i8, ptr, i32, ptr, ptr, ptr, ptr, i32, %struct.anon.7, ptr, ptr, ptr, ptr, ptr, ptr, ptr, ptr, ptr, ptr, ptr, ptr, ptr, ptr, ptr, ptr, ptr, ptr, ptr, ptr, ptr, ptr, %struct.wl_list, ptr, ptr, ptr, ptr, i32, i32, i8, i8 }
%struct.anon.7 = type { ptr }

@.str.4 = private unnamed_addr constant [19 x i8] c"Invalid data offer\00", align 1
@.str.5 = private unnamed_addr constant [28 x i8] c"Data device not initialized\00", align 1
@.str.6 = private unnamed_addr constant [20 x i8] c"Could not read pipe\00", align 1
@WAYLAND_wl_display_flush = external global ptr, align 8
@.str.7 = private unnamed_addr constant [61 x i8] c". In Wayland_data_offer_receive for '%s', buffer (%zu) at %p\00", align 1
@WAYLAND_wl_proxy_marshal_flags = external global ptr, align 8
@WAYLAND_wl_proxy_get_version = external global ptr, align 8

; Function Attrs: inlinehint nounwind uwtable
define internal void @wl_data_offer_receive(ptr noundef %0, ptr noundef %1, i32 noundef %2) #3 {
  %4 = alloca ptr, align 8
  %5 = alloca ptr, align 8
  %6 = alloca i32, align 4
  store ptr %0, ptr %4, align 8
  store ptr %1, ptr %5, align 8
  store i32 %2, ptr %6, align 4
  %7 = load ptr, ptr @WAYLAND_wl_proxy_marshal_flags, align 8
  %8 = load ptr, ptr %4, align 8
  %9 = load ptr, ptr @WAYLAND_wl_proxy_get_version, align 8
  %10 = load ptr, ptr %4, align 8
  %11 = call i32 %9(ptr noundef %10)
  %12 = load ptr, ptr %5, align 8
  %13 = load i32, ptr %6, align 4
  %14 = call ptr (ptr, i32, ptr, i32, i32, ...) %7(ptr noundef %8, i32 noundef 1, ptr noundef null, i32 noundef %11, i32 noundef 0, ptr noundef %12, i32 noundef %13)
  ret void
}

; Function Attrs: nounwind uwtable
define hidden ptr @Wayland_data_offer_receive(ptr noundef %0, ptr noundef %1, ptr noundef %2) #0 {
  %4 = alloca ptr, align 8
  %5 = alloca ptr, align 8
  %6 = alloca ptr, align 8
  %7 = alloca ptr, align 8
  %8 = alloca ptr, align 8
  %9 = alloca [2 x i32], align 4
  %10 = alloca ptr, align 8
  %11 = alloca i32, align 4
  store ptr %0, ptr %5, align 8
  store ptr %1, ptr %6, align 8
  store ptr %2, ptr %7, align 8
  call void @llvm.lifetime.start.p0(i64 8, ptr %8) #9
  store ptr null, ptr %8, align 8
  call void @llvm.lifetime.start.p0(i64 8, ptr %9) #9
  call void @llvm.lifetime.start.p0(i64 8, ptr %10) #9
  store ptr null, ptr %10, align 8
  %12 = load ptr, ptr %7, align 8
  store i64 0, ptr %12, align 8
  %13 = load ptr, ptr %5, align 8
  %14 = icmp ne ptr %13, null
  br i1 %14, label %17, label %15

15:                                               ; preds = %3
  %16 = call zeroext i1 (ptr, ...) @SDL_SetError_REAL(ptr noundef @.str.4)
  store ptr null, ptr %4, align 8
  store i32 1, ptr %11, align 4
  br label %68

17:                                               ; preds = %3
  %18 = load ptr, ptr %5, align 8
  %19 = getelementptr inbounds nuw %struct.SDL_WaylandDataOffer, ptr %18, i32 0, i32 2
  %20 = load ptr, ptr %19, align 8
  store ptr %20, ptr %8, align 8
  %21 = load ptr, ptr %8, align 8
  %22 = icmp ne ptr %21, null
  br i1 %22, label %25, label %23

23:                                               ; preds = %17
  %24 = call zeroext i1 (ptr, ...) @SDL_SetError_REAL(ptr noundef @.str.5)
  br label %62

25:                                               ; preds = %17
  %26 = getelementptr inbounds [2 x i32], ptr %9, i64 0, i64 0
  %27 = call i32 @pipe2(ptr noundef %26, i32 noundef 526336) #9
  %28 = icmp eq i32 %27, -1
  br i1 %28, label %29, label %31

29:                                               ; preds = %25
  %30 = call zeroext i1 (ptr, ...) @SDL_SetError_REAL(ptr noundef @.str.6)
  br label %61

31:                                               ; preds = %25
  %32 = load ptr, ptr %5, align 8
  %33 = getelementptr inbounds nuw %struct.SDL_WaylandDataOffer, ptr %32, i32 0, i32 0
  %34 = load ptr, ptr %33, align 8
  %35 = load ptr, ptr %6, align 8
  %36 = getelementptr inbounds [2 x i32], ptr %9, i64 0, i64 1
  %37 = load i32, ptr %36, align 4
  call void @wl_data_offer_receive(ptr noundef %34, ptr noundef %35, i32 noundef %37)
  %38 = getelementptr inbounds [2 x i32], ptr %9, i64 0, i64 1
  %39 = load i32, ptr %38, align 4
  %40 = call i32 @close(i32 noundef %39)
  %41 = load ptr, ptr @WAYLAND_wl_display_flush, align 8
  %42 = load ptr, ptr %8, align 8
  %43 = getelementptr inbounds nuw %struct.SDL_WaylandDataDevice, ptr %42, i32 0, i32 1
  %44 = load ptr, ptr %43, align 8
  %45 = getelementptr inbounds nuw %struct.SDL_WaylandSeat, ptr %44, i32 0, i32 0
  %46 = load ptr, ptr %45, align 8
  %47 = getelementptr inbounds nuw %struct.SDL_VideoData, ptr %46, i32 0, i32 1
  %48 = load ptr, ptr %47, align 8
  %49 = call i32 %41(ptr noundef %48)
  br label %50

50:                                               ; preds = %56, %31
  %51 = getelementptr inbounds [2 x i32], ptr %9, i64 0, i64 0
  %52 = load i32, ptr %51, align 4
  %53 = load ptr, ptr %7, align 8
  %54 = call i64 @read_pipe(i32 noundef %52, ptr noundef %10, ptr noundef %53)
  %55 = icmp sgt i64 %54, 0
  br i1 %55, label %56, label %57

56:                                               ; preds = %50
  br label %50, !llvm.loop !9

57:                                               ; preds = %50
  %58 = getelementptr inbounds [2 x i32], ptr %9, i64 0, i64 0
  %59 = load i32, ptr %58, align 4
  %60 = call i32 @close(i32 noundef %59)
  br label %61

61:                                               ; preds = %57, %29
  br label %62

62:                                               ; preds = %61, %23
  %63 = load ptr, ptr %6, align 8
  %64 = load ptr, ptr %7, align 8
  %65 = load i64, ptr %64, align 8
  %66 = load ptr, ptr %10, align 8
  call void (i32, ptr, ...) @SDL_LogTrace_REAL(i32 noundef 7, ptr noundef @.str.7, ptr noundef %63, i64 noundef %65, ptr noundef %66)
  %67 = load ptr, ptr %10, align 8
  store ptr %67, ptr %4, align 8
  store i32 1, ptr %11, align 4
  br label %68

68:                                               ; preds = %62, %15
  call void @llvm.lifetime.end.p0(i64 8, ptr %10) #9
  call void @llvm.lifetime.end.p0(i64 8, ptr %9) #9
  call void @llvm.lifetime.end.p0(i64 8, ptr %8) #9
  %69 = load ptr, ptr %4, align 8
  ret ptr %69
}