; Function Attrs: nounwind uwtable
define hidden noundef ptr @Wayland_data_offer_receive(ptr noundef readonly captures(address_is_null) %0, ptr noundef %1, ptr noundef captures(none) initializes((0, 8)) %2) local_unnamed_addr #0 {
  %4 = alloca [2 x i32], align 4
  %5 = alloca ptr, align 8
  call void @llvm.lifetime.start.p0(i64 8, ptr nonnull %4) #12
  call void @llvm.lifetime.start.p0(i64 8, ptr nonnull %5) #12
  store ptr null, ptr %5, align 8
  store i64 0, ptr %2, align 8
  %.not = icmp eq ptr %0, null
  br i1 %.not, label %6, label %8

6:                                                ; preds = %3
  %7 = tail call zeroext i1 (ptr, ...) @SDL_SetError_REAL(ptr noundef nonnull @.str.4) #12
  br label %45

8:                                                ; preds = %3
  %9 = getelementptr inbounds nuw i8, ptr %0, i64 24
  %10 = load ptr, ptr %9, align 8
  %.not13 = icmp eq ptr %10, null
  br i1 %.not13, label %11, label %13

11:                                               ; preds = %8
  %12 = tail call zeroext i1 (ptr, ...) @SDL_SetError_REAL(ptr noundef nonnull @.str.5) #12
  br label %42

13:                                               ; preds = %8
  %14 = call i32 @pipe2(ptr noundef nonnull %4, i32 noundef 526336) #12
  %15 = icmp eq i32 %14, -1
  br i1 %15, label %16, label %18

16:                                               ; preds = %13
  %17 = call zeroext i1 (ptr, ...) @SDL_SetError_REAL(ptr noundef nonnull @.str.6) #12
  br label %42

18:                                               ; preds = %13
  %19 = load ptr, ptr %0, align 8
  %20 = getelementptr inbounds nuw i8, ptr %4, i64 4
  %21 = load i32, ptr %20, align 4
  %22 = load ptr, ptr @WAYLAND_wl_proxy_marshal_flags, align 8
  %23 = load ptr, ptr @WAYLAND_wl_proxy_get_version, align 8
  %24 = call i32 %23(ptr noundef %19) #12
  %25 = call ptr (ptr, i32, ptr, i32, i32, ...) %22(ptr noundef %19, i32 noundef 1, ptr noundef null, i32 noundef %24, i32 noundef 0, ptr noundef %1, i32 noundef %21) #12
  %26 = load i32, ptr %20, align 4
  %27 = call i32 @close(i32 noundef %26) #12
  %28 = load ptr, ptr @WAYLAND_wl_display_flush, align 8
  %29 = getelementptr inbounds nuw i8, ptr %10, i64 8
  %30 = load ptr, ptr %29, align 8
  %31 = load ptr, ptr %30, align 8
  %32 = getelementptr inbounds nuw i8, ptr %31, i64 8
  %33 = load ptr, ptr %32, align 8
  %34 = call i32 %28(ptr noundef %33) #12
  br label %35

35:                                               ; preds = %35, %18
  %36 = load i32, ptr %4, align 4
  %37 = call fastcc i64 @read_pipe(i32 noundef %36, ptr noundef %5, ptr noundef nonnull %2)
  %38 = icmp sgt i64 %37, 0
  br i1 %38, label %35, label %39, !llvm.loop !7

39:                                               ; preds = %35
  %40 = load i32, ptr %4, align 4
  %41 = call i32 @close(i32 noundef %40) #12
  %.pre = load ptr, ptr %5, align 8
  br label %42

42:                                               ; preds = %16, %39, %11
  %43 = phi ptr [ null, %16 ], [ %.pre, %39 ], [ null, %11 ]
  %44 = load i64, ptr %2, align 8
  call void (i32, ptr, ...) @SDL_LogTrace_REAL(i32 noundef 7, ptr noundef nonnull @.str.7, ptr noundef %1, i64 noundef %44, ptr noundef %43) #12
  br label %45

45:                                               ; preds = %42, %6
  %.0 = phi ptr [ %43, %42 ], [ null, %6 ]
  call void @llvm.lifetime.end.p0(i64 8, ptr nonnull %5) #12
  call void @llvm.lifetime.end.p0(i64 8, ptr nonnull %4) #12
  ret ptr %.0
}